; Function Attrs: mustprogress uwtable
define hidden void @_ZN2cv14linearResponseEi(ptr dead_on_unwind noalias nonnull writable sret(%"class.cv::Mat") align 8 %0, i32 noundef %1) local_unnamed_addr #0 personality ptr @__gxx_personality_v0 {
  %3 = alloca %"class.cv::Vec", align 4
  %4 = shl i32 %1, 3
  %5 = add i32 %4, -3
  tail call void @_ZN2cv3MatC1Eiii(ptr noundef nonnull align 8 dereferenceable(96) %0, i32 noundef 256, i32 noundef 1, i32 noundef %5)
  %6 = getelementptr inbounds i8, ptr %0, i64 64
  %7 = getelementptr inbounds i8, ptr %0, i64 12
  %8 = getelementptr inbounds i8, ptr %0, i64 16
  %9 = getelementptr inbounds i8, ptr %0, i64 72
  br label %10

10:                                               ; preds = %2, %_ZN2cv3Mat2atINS_3VecIfLi3EEEEERT_i.exit
  %indvars.iv = phi i64 [ 0, %2 ], [ %indvars.iv.next, %_ZN2cv3Mat2atINS_3VecIfLi3EEEEERT_i.exit ]
  %11 = trunc nuw nsw i64 %indvars.iv to i32
  %12 = uitofp nneg i32 %11 to float
  call void @llvm.memset.p0.i64(ptr noundef nonnull align 4 dereferenceable(12) %3, i8 0, i64 12, i1 false), !alias.scope !15
  br label %13

13:                                               ; preds = %13, %10
  %indvars.iv.i = phi i64 [ 0, %10 ], [ %indvars.iv.next.i, %13 ]
  %14 = getelementptr inbounds [3 x float], ptr %3, i64 0, i64 %indvars.iv.i
  store float %12, ptr %14, align 4, !alias.scope !15
  %indvars.iv.next.i = add nuw nsw i64 %indvars.iv.i, 1
  %exitcond.not.i = icmp eq i64 %indvars.iv.next.i, 3
  br i1 %exitcond.not.i, label %_ZN2cv3VecIfLi3EE3allEf.exit, label %13, !llvm.loop !10

_ZN2cv3VecIfLi3EE3allEf.exit:                     ; preds = %13
  %15 = load i32, ptr %0, align 8
  %16 = and i32 %15, 16384
  %.not.i = icmp eq i32 %16, 0
  br i1 %.not.i, label %17, label %21

17:                                               ; preds = %_ZN2cv3VecIfLi3EE3allEf.exit
  %18 = load ptr, ptr %6, align 8
  %19 = load i32, ptr %18, align 4
  %20 = icmp eq i32 %19, 1
  br i1 %20, label %21, label %24

21:                                               ; preds = %17, %_ZN2cv3VecIfLi3EE3allEf.exit
  %22 = load ptr, ptr %8, align 8
  %23 = getelementptr inbounds %"class.cv::Vec", ptr %22, i64 %indvars.iv
  br label %_ZN2cv3Mat2atINS_3VecIfLi3EEEEERT_i.exit

24:                                               ; preds = %17
  %25 = getelementptr inbounds i8, ptr %18, i64 4
  %26 = load i32, ptr %25, align 4
  %27 = icmp eq i32 %26, 1
  br i1 %27, label %28, label %34

28:                                               ; preds = %24
  %29 = load ptr, ptr %8, align 8
  %30 = load ptr, ptr %9, align 8
  %31 = load i64, ptr %30, align 8
  %32 = mul i64 %31, %indvars.iv
  %33 = getelementptr inbounds i8, ptr %29, i64 %32
  br label %_ZN2cv3Mat2atINS_3VecIfLi3EEEEERT_i.exit

34:                                               ; preds = %24
  %35 = load i32, ptr %7, align 4
  %36 = sdiv i32 %11, %35
  %37 = mul nsw i32 %36, %35
  %.recomposed = srem i32 %11, %35
  %38 = load ptr, ptr %8, align 8
  %39 = load ptr, ptr %9, align 8
  %40 = load i64, ptr %39, align 8
  %41 = sext i32 %36 to i64
  %42 = mul i64 %40, %41
  %43 = getelementptr inbounds i8, ptr %38, i64 %42
  %44 = sext i32 %.recomposed to i64
  %45 = getelementptr inbounds %"class.cv::Vec", ptr %43, i64 %44
  br label %_ZN2cv3Mat2atINS_3VecIfLi3EEEEERT_i.exit

_ZN2cv3Mat2atINS_3VecIfLi3EEEEERT_i.exit:         ; preds = %21, %28, %34
  %.0.i = phi ptr [ %23, %21 ], [ %33, %28 ], [ %45, %34 ]
  call void @llvm.memcpy.p0.p0.i64(ptr noundef nonnull align 4 dereferenceable(12) %.0.i, ptr noundef nonnull align 4 dereferenceable(12) %3, i64 12, i1 false)
  %indvars.iv.next = add nuw nsw i64 %indvars.iv, 1
  %exitcond.not = icmp eq i64 %indvars.iv.next, 256
  br i1 %exitcond.not, label %46, label %10, !llvm.loop !18

46:                                               ; preds = %_ZN2cv3Mat2atINS_3VecIfLi3EEEEERT_i.exit
  ret void
}